BL51 BANKED LINKER/LOCATER V6.22.2.0                                                    06/13/2024  15:51:14  PAGE 1


BL51 BANKED LINKER/LOCATER V6.22.2.0, INVOKED BY:
C:\KEIL_V5\C51\BIN\BL51.EXE .\Objects\pro.obj TO .\Objects\Test PRINT (.\Listings\Test.m51) RAMSIZE (256)


MEMORY MODEL: LARGE


INPUT MODULES INCLUDED:
  .\Objects\pro.obj (PRO)
  C:\KEIL_V5\C51\LIB\C51L.LIB (?C_STARTUP)
  C:\KEIL_V5\C51\LIB\C51L.LIB (?C?UIDIV)
  C:\KEIL_V5\C51\LIB\C51L.LIB (?C_INIT)


LINK MAP OF MODULE:  .\Objects\Test (PRO)


            TYPE    BASE      LENGTH    RELOCATION   SEGMENT NAME
            -----------------------------------------------------

            * * * * * * *   D A T A   M E M O R Y   * * * * * * *
            REG     0000H     0008H     ABSOLUTE     "REG BANK 0"
            IDATA   0008H     0001H     UNIT         ?STACK

            * * * * * * *  X D A T A   M E M O R Y  * * * * * * *
            XDATA   0000H     0010H     UNIT         ?XD?PRO
            XDATA   0010H     0001H     UNIT         _XDATA_GROUP_

            * * * * * * *   C O D E   M E M O R Y   * * * * * * *
            CODE    0000H     0003H     ABSOLUTE     
            CODE    0003H     0013H     UNIT         ?CO?PRO
                    0016H     0005H                  *** GAP ***
            CODE    001BH     0003H     ABSOLUTE     
            CODE    001EH     00BCH     UNIT         ?PR?SHOW?PRO
            CODE    00DAH     00B3H     UNIT         ?PR?KEYDOWN?PRO
            CODE    018DH     008CH     UNIT         ?C_C51STARTUP
            CODE    0219H     007EH     UNIT         ?PR?DIGDISPLAY?PRO
            CODE    0297H     005CH     UNIT         ?PR?TIMER1?PRO
            CODE    02F3H     0055H     UNIT         ?C?LIB_CODE
            CODE    0348H     0043H     UNIT         ?PR?CHANGE?PRO
            CODE    038BH     002BH     UNIT         ?PR?CLOCK?PRO
            CODE    03B6H     0021H     UNIT         ?C_INITSEG
            CODE    03D7H     0010H     UNIT         ?PR?TIMER1INIT?PRO
            CODE    03E7H     000BH     UNIT         ?PR?_DELAY?PRO
            CODE    03F2H     000BH     UNIT         ?PR?MAIN?PRO



OVERLAY MAP OF MODULE:   .\Objects\Test (PRO)


SEGMENT                          XDATA_GROUP
  +--> CALLED SEGMENT          START    LENGTH
----------------------------------------------
?PR?TIMER1?PRO                 -----    -----
  +--> ?PR?CLOCK?PRO
  +--> ?PR?CHANGE?PRO
  +--> ?PR?DIGDISPLAY?PRO
BL51 BANKED LINKER/LOCATER V6.22.2.0                                                  06/13/2024  15:51:14  PAGE 2



?PR?DIGDISPLAY?PRO             -----    -----
  +--> ?CO?PRO
  +--> ?PR?_DELAY?PRO

*** NEW ROOT ***************************************************

?C_C51STARTUP                  -----    -----
  +--> ?PR?MAIN?PRO
  +--> ?C_INITSEG

?PR?MAIN?PRO                   -----    -----
  +--> ?PR?TIMER1INIT?PRO
  +--> ?PR?KEYDOWN?PRO
  +--> ?PR?SHOW?PRO

?PR?KEYDOWN?PRO                0010H    0001H
  +--> ?PR?_DELAY?PRO

?PR?SHOW?PRO                   -----    -----
  +--> ?PR?CHANGE?PRO
  +--> ?PR?DIGDISPLAY?PRO



SYMBOL TABLE OF MODULE:  .\Objects\Test (PRO)

  VALUE           TYPE          NAME
  ----------------------------------

  -------         MODULE        PRO
  C:0000H         SYMBOL        _ICE_DUMMY_
  X:0002H         PUBLIC        second
  D:0080H         PUBLIC        P0
  D:0090H         PUBLIC        P1
  D:00A0H         PUBLIC        P2
  B:00A8H.7       PUBLIC        EA
  C:038BH         PUBLIC        clock
  C:03E7H         PUBLIC        _delay
  X:0003H         PUBLIC        flag
  C:03F2H         PUBLIC        main
  X:0004H         PUBLIC        KeyValue
  C:0297H         PUBLIC        Timer1
  D:0089H         PUBLIC        TMOD
  X:0005H         PUBLIC        hour
  X:0006H         PUBLIC        con
  C:001EH         PUBLIC        show
  C:00DAH         PUBLIC        KeyDown
  X:000FH         PUBLIC        min
  B:00A8H.3       PUBLIC        ET1
  C:03D7H         PUBLIC        Timer1Init
  D:008DH         PUBLIC        TH1
  D:008BH         PUBLIC        TL1
  B:0088H.6       PUBLIC        TR1
  B:00A0H.2       PUBLIC        LSA
  B:00A0H.3       PUBLIC        LSB
  B:00A0H.4       PUBLIC        LSC
BL51 BANKED LINKER/LOCATER V6.22.2.0                                                  06/13/2024  15:51:14  PAGE 3


  C:0348H         PUBLIC        change
  C:0219H         PUBLIC        DigDisplay
  C:0003H         PUBLIC        smgduan
  -------         PROC          _DELAY
  D:0006H         SYMBOL        i
  C:03E7H         LINE#         15
  C:03E7H         LINE#         16
  C:03E7H         LINE#         17
  C:03F1H         LINE#         18
  -------         ENDPROC       _DELAY
  -------         PROC          KEYDOWN
  -------         DO            
  X:0010H         SYMBOL        a
  -------         ENDDO         
  C:00DAH         LINE#         20
  C:00DAH         LINE#         21
  C:00DAH         LINE#         22
  C:00DFH         LINE#         23
  C:00E2H         LINE#         24
  C:00ECH         LINE#         25
  C:00ECH         LINE#         26
  C:00F3H         LINE#         27
  C:00FDH         LINE#         28
  C:00FDH         LINE#         30
  C:0100H         LINE#         31
  C:0112H         LINE#         32
  C:0112H         LINE#         33
  C:0119H         LINE#         34
  C:0121H         LINE#         35
  C:0129H         LINE#         36
  C:012FH         LINE#         37
  C:012FH         LINE#         39
  C:0132H         LINE#         40
  C:0145H         LINE#         41
  C:0145H         LINE#         42
  C:014CH         LINE#         43
  C:0155H         LINE#         44
  C:015EH         LINE#         45
  C:0165H         LINE#         46
  C:0165H         LINE#         47
  C:0180H         LINE#         48
  C:0180H         LINE#         49
  C:0187H         LINE#         50
  C:018AH         LINE#         51
  C:018CH         LINE#         52
  C:018CH         LINE#         53
  C:018CH         LINE#         54
  -------         ENDPROC       KEYDOWN
  -------         PROC          CHANGE
  C:0348H         LINE#         56
  C:0348H         LINE#         57
  C:0348H         LINE#         58
  C:0355H         LINE#         59
  C:035EH         LINE#         60
  C:036BH         LINE#         61
  C:0374H         LINE#         62
  C:0381H         LINE#         63
BL51 BANKED LINKER/LOCATER V6.22.2.0                                                  06/13/2024  15:51:14  PAGE 4


  C:038AH         LINE#         64
  -------         ENDPROC       CHANGE
  -------         PROC          DIGDISPLAY
  -------         DO            
  D:0005H         SYMBOL        i
  -------         ENDDO         
  C:0219H         LINE#         66
  C:0219H         LINE#         67
  C:0219H         LINE#         69
  C:0225H         LINE#         70
  C:0225H         LINE#         71
  C:024AH         LINE#         72
  C:024AH         LINE#         73
  C:024AH         LINE#         74
  C:024EH         LINE#         75
  C:024EH         LINE#         76
  C:0256H         LINE#         77
  C:0256H         LINE#         78
  C:025AH         LINE#         79
  C:025AH         LINE#         80
  C:0262H         LINE#         81
  C:0262H         LINE#         82
  C:0266H         LINE#         83
  C:0266H         LINE#         84
  C:026EH         LINE#         85
  C:026EH         LINE#         86
  C:0272H         LINE#         87
  C:0272H         LINE#         88
  C:0278H         LINE#         89
  C:0278H         LINE#         90
  C:0289H         LINE#         91
  C:0290H         LINE#         92
  C:0293H         LINE#         93
  C:0296H         LINE#         94
  -------         ENDPROC       DIGDISPLAY
  -------         PROC          SHOW
  C:001EH         LINE#         96
  C:001EH         LINE#         97
  C:001EH         LINE#         98
  C:0049H         LINE#         99
  C:0049H         LINE#         100
  C:0049H         LINE#         101
  C:0056H         LINE#         102
  C:0056H         LINE#         103
  C:005AH         LINE#         104
  C:005CH         LINE#         105
  C:005CH         LINE#         106
  C:005EH         LINE#         108
  C:005EH         LINE#         109
  C:0064H         LINE#         110
  C:0068H         LINE#         111
  C:006EH         LINE#         112
  C:006EH         LINE#         113
  C:0070H         LINE#         115
  C:0070H         LINE#         116
  C:0076H         LINE#         118
  C:0078H         LINE#         120
BL51 BANKED LINKER/LOCATER V6.22.2.0                                                  06/13/2024  15:51:14  PAGE 5


  C:0078H         LINE#         121
  C:007BH         LINE#         123
  C:007DH         LINE#         125
  C:007DH         LINE#         126
  C:0083H         LINE#         128
  C:0085H         LINE#         130
  C:0085H         LINE#         131
  C:008BH         LINE#         132
  C:008BH         LINE#         133
  C:0091H         LINE#         134
  C:0093H         LINE#         135
  C:0098H         LINE#         136
  C:0098H         LINE#         137
  C:009AH         LINE#         139
  C:009AH         LINE#         140
  C:00A8H         LINE#         142
  C:00AAH         LINE#         144
  C:00AAH         LINE#         145
  C:00B8H         LINE#         147
  C:00BAH         LINE#         149
  C:00BAH         LINE#         150
  C:00CDH         LINE#         152
  C:00CDH         LINE#         153
  C:00CDH         LINE#         154
  C:00D0H         LINE#         155
  C:00D3H         LINE#         156
  C:00D9H         LINE#         157
  -------         ENDPROC       SHOW
  -------         PROC          TIMER1INIT
  C:03D7H         LINE#         161
  C:03D7H         LINE#         162
  C:03D7H         LINE#         163
  C:03DAH         LINE#         165
  C:03DDH         LINE#         166
  C:03E0H         LINE#         167
  C:03E2H         LINE#         168
  C:03E4H         LINE#         169
  C:03E6H         LINE#         170
  -------         ENDPROC       TIMER1INIT
  -------         PROC          CLOCK
  C:038BH         LINE#         172
  C:038BH         LINE#         173
  C:038BH         LINE#         174
  C:0391H         LINE#         175
  C:0396H         LINE#         176
  C:0396H         LINE#         177
  C:0397H         LINE#         178
  C:039DH         LINE#         179
  C:039DH         LINE#         180
  C:03A5H         LINE#         181
  C:03A5H         LINE#         182
  C:03A6H         LINE#         183
  C:03ACH         LINE#         184
  C:03ACH         LINE#         185
  C:03B4H         LINE#         186
  C:03B4H         LINE#         187
  C:03B5H         LINE#         188
BL51 BANKED LINKER/LOCATER V6.22.2.0                                                  06/13/2024  15:51:14  PAGE 6


  C:03B5H         LINE#         189
  -------         ENDPROC       CLOCK
  -------         PROC          MAIN
  C:03F2H         LINE#         191
  C:03F2H         LINE#         192
  C:03F2H         LINE#         193
  C:03F5H         LINE#         194
  C:03F5H         LINE#         195
  C:03F5H         LINE#         196
  C:03F8H         LINE#         197
  C:03FBH         LINE#         198
  -------         ENDPROC       MAIN
  -------         PROC          TIMER1
  -------         DO            
  X:0000H         SYMBOL        i
  -------         ENDDO         
  C:0297H         LINE#         201
  C:02AEH         LINE#         204
  C:02B1H         LINE#         205
  C:02B4H         LINE#         206
  C:02C2H         LINE#         207
  C:02CEH         LINE#         208
  C:02CEH         LINE#         209
  C:02D1H         LINE#         210
  C:02D4H         LINE#         211
  C:02D7H         LINE#         212
  C:02DEH         LINE#         213
  C:02DEH         LINE#         214
  -------         ENDPROC       TIMER1
  -------         ENDMOD        PRO

  -------         MODULE        ?C?UIDIV
  C:02F3H         PUBLIC        ?C?UIDIV
  -------         ENDMOD        ?C?UIDIV

Program Size: data=9.0 xdata=17 code=1016
LINK/LOCATE RUN COMPLETE.  0 WARNING(S),  0 ERROR(S)
